target datalayout = "e-m:e-p270:32:32-p271:32:32-p272:64:64-i64:64-i128:128-f80:128-n8:16:32:64-S128"
target triple = "x86_64-pc-linux-gnu"

; Function Attrs: nounwind uwtable
define internal float @avifToGammaSRGB(float noundef %0) #0 {
  %2 = alloca float, align 4
  %3 = alloca float, align 4
  store float %0, ptr %3, align 4
  %4 = load float, ptr %3, align 4
  %5 = fcmp olt float %4, 0.000000e+00
  br i1 %5, label %6, label %7

6:                                                ; preds = %1
  store float 0.000000e+00, ptr %2, align 4
  br label %21

7:                                                ; preds = %1
  %8 = load float, ptr %3, align 4
  %9 = fcmp olt float %8, 0x3F68EA0820000000
  br i1 %9, label %10, label %13

10:                                               ; preds = %7
  %11 = load float, ptr %3, align 4
  %12 = fmul float %11, 0x4029D70A40000000
  store float %12, ptr %2, align 4
  br label %21

13:                                               ; preds = %7
  %14 = load float, ptr %3, align 4
  %15 = fcmp olt float %14, 1.000000e+00
  br i1 %15, label %16, label %20

16:                                               ; preds = %13
  %17 = load float, ptr %3, align 4
  %18 = call float @powf(float noundef %17, float noundef 0x3FDAAAAAA0000000) #4
  %19 = call float @llvm.fmuladd.f32(float 0x3FF0E152E0000000, float %18, float 0xBFAC2A5D60000000)
  store float %19, ptr %2, align 4
  br label %21

20:                                               ; preds = %13
  store float 1.000000e+00, ptr %2, align 4
  br label %21

21:                                               ; preds = %20, %16, %10, %6
  %22 = load float, ptr %2, align 4
  ret float %22
}